; ModuleID = 'source-C-CXX/56/2424.c'
source_filename = "source-C-CXX/56/2424.c"
target datalayout = "e-m:e-p270:32:32-p271:32:32-p272:64:64-i64:64-f80:128-n8:16:32:64-S128"
target triple = "x86_64-pc-linux-gnu"

@.str = private unnamed_addr constant [3 x i8] c"%d\00", align 1
@.str.1 = private unnamed_addr constant [3 x i8] c"%s\00", align 1

; Function Attrs: nofree nounwind sspstrong uwtable
define dso_local void @main() local_unnamed_addr #0 {
  %1 = alloca i32, align 4
  %2 = alloca [50 x [15 x i8]], align 16
  %3 = bitcast i32* %1 to i8*
  call void @llvm.lifetime.start.p0i8(i64 4, i8* nonnull %3) #6
  %4 = getelementptr inbounds [50 x [15 x i8]], [50 x [15 x i8]]* %2, i64 0, i64 0, i64 0
  call void @llvm.lifetime.start.p0i8(i64 750, i8* nonnull %4) #6
  %5 = call i32 (i8*, ...) @__isoc99_scanf(i8* getelementptr inbounds ([3 x i8], [3 x i8]* @.str, i64 0, i64 0), i32* nonnull %1)
  %6 = load i32, i32* %1, align 4, !tbaa !5
  %7 = icmp sgt i32 %6, 0
  br i1 %7, label %10, label %61

8:                                                ; preds = %10
  %9 = icmp sgt i32 %15, 0
  br i1 %9, label %18, label %61

10:                                               ; preds = %0, %10
  %11 = phi i64 [ %14, %10 ], [ 0, %0 ]
  %12 = getelementptr inbounds [50 x [15 x i8]], [50 x [15 x i8]]* %2, i64 0, i64 %11, i64 0
  %13 = call i32 (i8*, ...) @__isoc99_scanf(i8* getelementptr inbounds ([3 x i8], [3 x i8]* @.str.1, i64 0, i64 0), i8* nonnull %12)
  %14 = add nuw nsw i64 %11, 1
  %15 = load i32, i32* %1, align 4, !tbaa !5
  %16 = sext i32 %15 to i64
  %17 = icmp slt i64 %14, %16
  br i1 %17, label %10, label %8, !llvm.loop !9

18:                                               ; preds = %8, %55
  %19 = phi i64 [ %57, %55 ], [ 0, %8 ]
  %20 = getelementptr inbounds [50 x [15 x i8]], [50 x [15 x i8]]* %2, i64 0, i64 %19, i64 0
  %21 = call i64 @strlen(i8* noundef nonnull dereferenceable(1) %20) #7
  %22 = shl i64 %21, 32
  %23 = add i64 %22, -8589934592
  %24 = ashr exact i64 %23, 32
  %25 = getelementptr inbounds [50 x [15 x i8]], [50 x [15 x i8]]* %2, i64 0, i64 %19, i64 %24
  %26 = load i8, i8* %25, align 1, !tbaa !11
  switch i8 %26, label %39 [
    i8 101, label %27
    i8 108, label %33
  ]

27:                                               ; preds = %18
  %28 = add i64 %22, -4294967296
  %29 = ashr exact i64 %28, 32
  %30 = getelementptr inbounds [50 x [15 x i8]], [50 x [15 x i8]]* %2, i64 0, i64 %19, i64 %29
  %31 = load i8, i8* %30, align 1, !tbaa !11
  %32 = icmp eq i8 %31, 114
  br i1 %32, label %53, label %39

33:                                               ; preds = %18
  %34 = add i64 %22, -4294967296
  %35 = ashr exact i64 %34, 32
  %36 = getelementptr inbounds [50 x [15 x i8]], [50 x [15 x i8]]* %2, i64 0, i64 %19, i64 %35
  %37 = load i8, i8* %36, align 1, !tbaa !11
  %38 = icmp eq i8 %37, 121
  br i1 %38, label %53, label %39

39:                                               ; preds = %33, %27, %18
  %40 = add i64 %22, -12884901888
  %41 = ashr exact i64 %40, 32
  %42 = getelementptr inbounds [50 x [15 x i8]], [50 x [15 x i8]]* %2, i64 0, i64 %19, i64 %41
  %43 = load i8, i8* %42, align 1, !tbaa !11
  %44 = icmp eq i8 %43, 105
  %45 = icmp eq i8 %26, 110
  %46 = select i1 %44, i1 %45, i1 false
  br i1 %46, label %47, label %55

47:                                               ; preds = %39
  %48 = add i64 %22, -4294967296
  %49 = ashr exact i64 %48, 32
  %50 = getelementptr inbounds [50 x [15 x i8]], [50 x [15 x i8]]* %2, i64 0, i64 %19, i64 %49
  %51 = load i8, i8* %50, align 1, !tbaa !11
  %52 = icmp eq i8 %51, 103
  br i1 %52, label %53, label %55

53:                                               ; preds = %47, %33, %27
  %54 = phi i8* [ %25, %27 ], [ %25, %33 ], [ %42, %47 ]
  store i8 0, i8* %54, align 1, !tbaa !11
  br label %55

55:                                               ; preds = %39, %47, %53
  %56 = call i32 @puts(i8* nonnull %20)
  %57 = add nuw nsw i64 %19, 1
  %58 = load i32, i32* %1, align 4, !tbaa !5
  %59 = sext i32 %58 to i64
  %60 = icmp slt i64 %57, %59
  br i1 %60, label %18, label %61, !llvm.loop !12

61:                                               ; preds = %55, %0, %8
  call void @llvm.lifetime.end.p0i8(i64 750, i8* nonnull %4) #6
  call void @llvm.lifetime.end.p0i8(i64 4, i8* nonnull %3) #6
  ret void
}

; Function Attrs: argmemonly mustprogress nofree nosync nounwind willreturn
declare void @llvm.lifetime.start.p0i8(i64 immarg, i8* nocapture) #1

; Function Attrs: nofree nounwind
declare noundef i32 @__isoc99_scanf(i8* nocapture noundef readonly, ...) local_unnamed_addr #2

; Function Attrs: mustprogress nofree nounwind sspstrong uwtable willreturn
define dso_local noalias i8* @del(i8* nocapture %0) local_unnamed_addr #3 {
  %2 = tail call i64 @strlen(i8* noundef nonnull dereferenceable(1) %0) #7
  %3 = shl i64 %2, 32
  %4 = add i64 %3, -8589934592
  %5 = ashr exact i64 %4, 32
  %6 = getelementptr inbounds i8, i8* %0, i64 %5
  %7 = load i8, i8* %6, align 1, !tbaa !11
  switch i8 %7, label %20 [
    i8 101, label %8
    i8 108, label %14
  ]

8:                                                ; preds = %1
  %9 = add i64 %3, -4294967296
  %10 = ashr exact i64 %9, 32
  %11 = getelementptr inbounds i8, i8* %0, i64 %10
  %12 = load i8, i8* %11, align 1, !tbaa !11
  %13 = icmp eq i8 %12, 114
  br i1 %13, label %34, label %20

14:                                               ; preds = %1
  %15 = add i64 %3, -4294967296
  %16 = ashr exact i64 %15, 32
  %17 = getelementptr inbounds i8, i8* %0, i64 %16
  %18 = load i8, i8* %17, align 1, !tbaa !11
  %19 = icmp eq i8 %18, 121
  br i1 %19, label %34, label %20

20:                                               ; preds = %1, %8, %14
  %21 = add i64 %3, -12884901888
  %22 = ashr exact i64 %21, 32
  %23 = getelementptr inbounds i8, i8* %0, i64 %22
  %24 = load i8, i8* %23, align 1, !tbaa !11
  %25 = icmp eq i8 %24, 105
  %26 = icmp eq i8 %7, 110
  %27 = select i1 %25, i1 %26, i1 false
  br i1 %27, label %28, label %36

28:                                               ; preds = %20
  %29 = add i64 %3, -4294967296
  %30 = ashr exact i64 %29, 32
  %31 = getelementptr inbounds i8, i8* %0, i64 %30
  %32 = load i8, i8* %31, align 1, !tbaa !11
  %33 = icmp eq i8 %32, 103
  br i1 %33, label %34, label %36

34:                                               ; preds = %28, %14, %8
  %35 = phi i8* [ %6, %8 ], [ %6, %14 ], [ %23, %28 ]
  store i8 0, i8* %35, align 1, !tbaa !11
  br label %36

36:                                               ; preds = %34, %28, %20
  ret i8* null
}

; Function Attrs: argmemonly mustprogress nofree nosync nounwind willreturn
declare void @llvm.lifetime.end.p0i8(i64 immarg, i8* nocapture) #1

; Function Attrs: argmemonly mustprogress nofree nounwind readonly willreturn
declare i64 @strlen(i8* nocapture) local_unnamed_addr #4

; Function Attrs: nofree nounwind
declare noundef i32 @puts(i8* nocapture noundef readonly) local_unnamed_addr #5


!llvm.module.flags = !{!0, !1, !2, !3}
!llvm.ident = !{!4}

!0 = !{i32 1, !"wchar_size", i32 4}
!1 = !{i32 7, !"PIC Level", i32 2}
!2 = !{i32 7, !"PIE Level", i32 2}
!3 = !{i32 7, !"uwtable", i32 1}
!4 = !{!"clang version 13.0.0"}
!5 = !{!6, !6, i64 0}
!6 = !{!"int", !7, i64 0}
!7 = !{!"omnipotent char", !8, i64 0}
!8 = !{!"Simple C/C++ TBAA"}
!9 = distinct !{!9, !10}
!10 = !{!"llvm.loop.mustprogress"}
!11 = !{!7, !7, i64 0}
!12 = distinct !{!12, !10}
